(dp0
S'device_data_list'
p1
(lp2
(dp3
S'util'
p4
(lp5
F0.68
aF5.36
aF5.28
aF6.24
asS'r_await'
p6
(lp7
F23.81
aF0.58
aF0.52
aF0.69
asS'avgqusz'
p8
(lp9
F0.49
aF0.08
aF0.34
aF0.11
asS'await'
p10
(lp11
F68.69
aF0.58
aF2.39
aF0.68
asS'rMB'
p12
(lp13
F0.15
aF1.03
aF0.97
aF1.55
asS'svctm'
p14
(lp15
F0.96
aF0.37
aF0.37
aF0.39
asS'r'
p16
(lp17
F1.47
aF144.6
aF122.4
aF160.6
asS'wrqm'
p18
(lp19
F1.37
aF2.2
aF4.8
aF8.8
asS'w'
p20
(lp21
F5.65
aF0.4
aF19.4
aF1.0
asS'avgrqsz'
p22
(lp23
F102.53
aF14.7
aF17.96
aF20.08
asS'device'
p24
S'sda'
p25
sS'wMB'
p26
(lp27
F0.21
aF0.01
aF0.27
aF0.04
asS'rrqm'
p28
(lp29
F0.02
aF0.0
aF0.0
aF0.0
asS'w_await'
p30
(lp31
F80.39
aF0.0
aF14.19
aF0.0
asasS'x_seconds'
p32
(lp33
F0.0
aF5.0
aF10.0
aF15.0
asS'time_data'
p34
(dp35
S'time_list'
p36
(lp37
S'20:54:35'
p38
aS'20:54:40'
p39
aS'20:54:45'
p40
aS'20:54:50'
p41
asS'meridian_list'
p42
(lp43
S'PM'
p44
aS'PM'
p45
aS'PM'
p46
aS'PM'
p47
asS'date_list'
p48
(lp49
S'03 15 2016'
p50
aS'03 15 2016'
p51
aS'03 15 2016'
p52
aS'03 15 2016'
p53
assS'cpu_data'
p54
(dp55
S'system_list'
p56
(lp57
F1.3
aF1.83
aF2.54
aF4.72
asS'time_sum_list'
p58
(lp59
F5.93
aF5.59
aF7.67
aF29.54
asS'idle_list'
p60
(lp61
F93.88
aF94.06
aF91.97
aF70.05
asS'iowait_list'
p62
(lp63
F0.19
aF0.36
aF0.36
aF0.41
asS'version'
p64
I10
sS'steal_list'
p65
(lp66
F0.0
aF0.0
aF0.0
aF0.0
asS'nice_list'
p67
(lp68
F0.0
aF0.0
aF0.0
aF0.0
asS'user_list'
p69
(lp70
F4.63
aF3.76
aF5.13
aF24.82
asS'cpu_labels'
p71
(lp72
S'avg-cpu:'
p73
aS'%user'
p74
aS'%nice'
p75
aS'%system'
p76
aS'%iowait'
p77
aS'%steal'
p78
aS'%idle'
p79
assS'system_info'
p80
(dp81
S'system_name'
p82
S'object1'
p83
sS'kernel'
p84
S'3.13.0-76-generic'
p85
sS'date'
p86
S'03/15/2016'
p87
sS'cores'
p88
S'4'
p89
sS'OS'
p90
S'Linux'
p91
sS'CPU'
p92
S'_x86_64_'
p93
ss.